target datalayout = "e-m:e-p270:32:32-p271:32:32-p272:64:64-i64:64-i128:128-f80:128-n8:16:32:64-S128"
target triple = "x86_64-pc-linux-gnu"

%struct.oidset = type { %struct.kh_oid_set }
%struct.kh_oid_set = type { i32, i32, i32, i32, ptr, ptr, ptr }
%struct.rev_info = type { ptr, %struct.object_array, ptr, %struct.object_array, %struct.rev_cmdline_info, %struct.list_objects_filter_options, %struct.ref_exclusions, ptr, ptr, ptr, %struct.pathspec, i32, i32, i32, i32, i64, i32, i32, %struct.date_mode, i32, i32, i32, i32, ptr, i32, i32, ptr, ptr, i32, ptr, ptr, %struct.ident_split, ptr, i32, ptr, ptr, ptr, i32, i32, i32, ptr, %struct.grep_opt, ptr, i32, i32, i64, i64, i64, i32, i32, ptr, ptr, ptr, %struct.diff_options, %struct.diff_options, ptr, %struct.decoration, %struct.decoration, %struct.decoration, %struct.display_notes_opt, ptr, ptr, ptr, ptr, ptr, i32, ptr, i32, i32, i32, %struct.decoration, ptr, ptr, ptr, ptr, ptr, ptr, ptr, i32, ptr, i32, ptr, %struct.oidset }
%struct.object_array = type { i32, i32, ptr }
%struct.rev_cmdline_info = type { i32, i32, ptr }
%struct.list_objects_filter_options = type { %struct.strbuf, i32, i8, ptr, i64, i64, i32, i64, i64, ptr }
%struct.strbuf = type { i64, i64, ptr }
%struct.ref_exclusions = type { %struct.string_list, %struct.strvec, i8 }
%struct.string_list = type { ptr, i64, i64, i8, ptr }
%struct.strvec = type { ptr, i64, i64 }
%struct.pathspec = type { i32, i8, i32, i32, ptr }
%struct.date_mode = type { i32, i32, ptr }
%struct.ident_split = type { ptr, ptr, ptr, ptr, ptr, ptr, ptr, ptr }
%struct.grep_opt = type { ptr, ptr, ptr, ptr, ptr, ptr, i32, i32, i32, i32, i32, i32, i32, i32, i32, i32, i32, i32, i32, i32, i32, i32, i32, i32, i32, i32, i32, i32, i32, i32, i32, i32, [9 x [75 x i8]], i32, i32, i32, i32, i32, i32, i32, ptr, ptr, ptr }
%struct.diff_options = type { ptr, ptr, i32, i32, ptr, i32, ptr, i64, i64, ptr, ptr, ptr, ptr, %struct.diff_flags, i32, i32, i32, i32, i32, i32, i32, i32, i32, i32, i32, i32, i32, i32, i32, i32, i32, i32, i32, i32, i32, i32, ptr, i32, ptr, i32, i32, ptr, i64, i64, i32, i32, i32, i32, ptr, i32, i32, ptr, i32, i32, ptr, ptr, i32, [3 x i8], %struct.pathspec, ptr, ptr, ptr, ptr, ptr, ptr, ptr, ptr, i32, ptr, i32, i32, ptr, ptr, i32 }
%struct.diff_flags = type { i32, i32, i32, i32, i32, i32, i32, i32, i32, i32, i32, i32, i32, i32, i32, i32, i32, i32, i32, i32, i32, i32, i32, i32, i32, i32, i32, i32, i32, i32, i32, i32, i32, i32, i32 }
%struct.display_notes_opt = type { i32, %struct.string_list }
%struct.decoration = type { ptr, i32, i32, ptr }
%struct.object = type { i32, %struct.object_id }
%struct.object_id = type { [32 x i8], i32 }
%struct.traversal_context = type { ptr, ptr, ptr, ptr, ptr, i32 }
%struct.blob = type { %struct.object }

@the_repository = external global ptr, align 8
@.str.10 = private unnamed_addr constant [11 x i8] c"./strbuf.h\00", align 1
@.str.11 = private unnamed_addr constant [30 x i8] c"strbuf_setlen() beyond buffer\00", align 1
@strbuf_slopbuf = external global [0 x i8], align 1
@.str.12 = private unnamed_addr constant [16 x i8] c"bad blob object\00", align 1

; Function Attrs: inlinehint nounwind uwtable
define internal void @strbuf_setlen(ptr noundef %0, i64 noundef %1) #5 {
  %3 = alloca ptr, align 8
  %4 = alloca i64, align 8
  store ptr %0, ptr %3, align 8, !tbaa !104
  store i64 %1, ptr %4, align 8, !tbaa !75
  %5 = load i64, ptr %4, align 8, !tbaa !75
  %6 = load ptr, ptr %3, align 8, !tbaa !104
  %7 = getelementptr inbounds nuw %struct.strbuf, ptr %6, i32 0, i32 0
  %8 = load i64, ptr %7, align 8, !tbaa !152
  %9 = icmp ne i64 %8, 0
  br i1 %9, label %10, label %15

10:                                               ; preds = %2
  %11 = load ptr, ptr %3, align 8, !tbaa !104
  %12 = getelementptr inbounds nuw %struct.strbuf, ptr %11, i32 0, i32 0
  %13 = load i64, ptr %12, align 8, !tbaa !152
  %14 = sub i64 %13, 1
  br label %16

15:                                               ; preds = %2
  br label %16

16:                                               ; preds = %15, %10
  %17 = phi i64 [ %14, %10 ], [ 0, %15 ]
  %18 = icmp ugt i64 %5, %17
  br i1 %18, label %19, label %20

19:                                               ; preds = %16
  call void (ptr, i32, ptr, ...) @BUG_fl(ptr noundef @.str.10, i32 noundef 167, ptr noundef @.str.11) #9
  unreachable

20:                                               ; preds = %16
  %21 = load i64, ptr %4, align 8, !tbaa !75
  %22 = load ptr, ptr %3, align 8, !tbaa !104
  %23 = getelementptr inbounds nuw %struct.strbuf, ptr %22, i32 0, i32 1
  store i64 %21, ptr %23, align 8, !tbaa !116
  %24 = load ptr, ptr %3, align 8, !tbaa !104
  %25 = getelementptr inbounds nuw %struct.strbuf, ptr %24, i32 0, i32 2
  %26 = load ptr, ptr %25, align 8, !tbaa !119
  %27 = icmp ne ptr %26, @strbuf_slopbuf
  br i1 %27, label %28, label %34

28:                                               ; preds = %20
  %29 = load ptr, ptr %3, align 8, !tbaa !104
  %30 = getelementptr inbounds nuw %struct.strbuf, ptr %29, i32 0, i32 2
  %31 = load ptr, ptr %30, align 8, !tbaa !119
  %32 = load i64, ptr %4, align 8, !tbaa !75
  %33 = getelementptr inbounds nuw i8, ptr %31, i64 %32
  store i8 0, ptr %33, align 1, !tbaa !103
  br label %35

34:                                               ; preds = %20
  br label %35

35:                                               ; preds = %34, %28
  ret void
}

; Function Attrs: nounwind uwtable
define internal void @show_object(ptr noundef %0, ptr noundef %1, ptr noundef %2) #0 {
  %4 = alloca ptr, align 8
  %5 = alloca ptr, align 8
  %6 = alloca ptr, align 8
  store ptr %0, ptr %4, align 8, !tbaa !99
  store ptr %1, ptr %5, align 8, !tbaa !81
  store ptr %2, ptr %6, align 8, !tbaa !102
  %7 = load ptr, ptr %4, align 8, !tbaa !99
  %8 = getelementptr inbounds nuw %struct.traversal_context, ptr %7, i32 0, i32 1
  %9 = load ptr, ptr %8, align 8, !tbaa !93
  %10 = icmp ne ptr %9, null
  br i1 %10, label %12, label %11

11:                                               ; preds = %3
  br label %42

12:                                               ; preds = %3
  %13 = load ptr, ptr %4, align 8, !tbaa !99
  %14 = getelementptr inbounds nuw %struct.traversal_context, ptr %13, i32 0, i32 0
  %15 = load ptr, ptr %14, align 8, !tbaa !90
  %16 = getelementptr inbounds nuw %struct.rev_info, ptr %15, i32 0, i32 15
  %17 = load i64, ptr %16, align 8
  %18 = lshr i64 %17, 20
  %19 = and i64 %18, 1
  %20 = trunc i64 %19 to i32
  %21 = icmp ne i32 %20, 0
  br i1 %21, label %22, label %33

22:                                               ; preds = %12
  %23 = load ptr, ptr %4, align 8, !tbaa !99
  %24 = getelementptr inbounds nuw %struct.traversal_context, ptr %23, i32 0, i32 0
  %25 = load ptr, ptr %24, align 8, !tbaa !90
  %26 = getelementptr inbounds nuw %struct.rev_info, ptr %25, i32 0, i32 2
  %27 = load ptr, ptr %26, align 8, !tbaa !73
  %28 = load ptr, ptr %5, align 8, !tbaa !81
  %29 = getelementptr inbounds nuw %struct.object, ptr %28, i32 0, i32 1
  %30 = call i32 @has_object_pack(ptr noundef %27, ptr noundef %29)
  %31 = icmp ne i32 %30, 0
  br i1 %31, label %32, label %33

32:                                               ; preds = %22
  br label %42

33:                                               ; preds = %22, %12
  %34 = load ptr, ptr %4, align 8, !tbaa !99
  %35 = getelementptr inbounds nuw %struct.traversal_context, ptr %34, i32 0, i32 1
  %36 = load ptr, ptr %35, align 8, !tbaa !93
  %37 = load ptr, ptr %5, align 8, !tbaa !81
  %38 = load ptr, ptr %6, align 8, !tbaa !102
  %39 = load ptr, ptr %4, align 8, !tbaa !99
  %40 = getelementptr inbounds nuw %struct.traversal_context, ptr %39, i32 0, i32 3
  %41 = load ptr, ptr %40, align 8, !tbaa !95
  call void %36(ptr noundef %37, ptr noundef %38, ptr noundef %41)
  br label %42

42:                                               ; preds = %33, %32, %11
  ret void
}

; Function Attrs: inlinehint nounwind uwtable
define internal void @strbuf_addstr(ptr noundef %0, ptr noundef %1) #5 {
  %3 = alloca ptr, align 8
  %4 = alloca ptr, align 8
  store ptr %0, ptr %3, align 8, !tbaa !104
  store ptr %1, ptr %4, align 8, !tbaa !102
  %5 = load ptr, ptr %3, align 8, !tbaa !104
  %6 = load ptr, ptr %4, align 8, !tbaa !102
  %7 = load ptr, ptr %4, align 8, !tbaa !102
  %8 = call i64 @strlen(ptr noundef %7) #10
  call void @strbuf_add(ptr noundef %5, ptr noundef %6, i64 noundef %8)
  ret void
}

; Function Attrs: nounwind uwtable
define internal void @process_blob(ptr noundef %0, ptr noundef %1, ptr noundef %2, ptr noundef %3) #0 {
  %5 = alloca ptr, align 8
  %6 = alloca ptr, align 8
  %7 = alloca ptr, align 8
  %8 = alloca ptr, align 8
  %9 = alloca ptr, align 8
  %10 = alloca i64, align 8
  %11 = alloca i32, align 4
  %12 = alloca i32, align 4
  store ptr %0, ptr %5, align 8, !tbaa !99
  store ptr %1, ptr %6, align 8, !tbaa !120
  store ptr %2, ptr %7, align 8, !tbaa !104
  store ptr %3, ptr %8, align 8, !tbaa !102
  call void @llvm.lifetime.start.p0(i64 8, ptr %9) #8
  %13 = load ptr, ptr %6, align 8, !tbaa !120
  %14 = getelementptr inbounds nuw %struct.blob, ptr %13, i32 0, i32 0
  store ptr %14, ptr %9, align 8, !tbaa !81
  call void @llvm.lifetime.start.p0(i64 8, ptr %10) #8
  call void @llvm.lifetime.start.p0(i64 4, ptr %11) #8
  %15 = load ptr, ptr %5, align 8, !tbaa !99
  %16 = getelementptr inbounds nuw %struct.traversal_context, ptr %15, i32 0, i32 0
  %17 = load ptr, ptr %16, align 8, !tbaa !90
  %18 = getelementptr inbounds nuw %struct.rev_info, ptr %17, i32 0, i32 15
  %19 = load i64, ptr %18, align 8
  %20 = lshr i64 %19, 15
  %21 = and i64 %20, 1
  %22 = trunc i64 %21 to i32
  %23 = icmp ne i32 %22, 0
  br i1 %23, label %25, label %24

24:                                               ; preds = %4
  store i32 1, ptr %12, align 4
  br label %113

25:                                               ; preds = %4
  %26 = load ptr, ptr %9, align 8, !tbaa !81
  %27 = icmp ne ptr %26, null
  br i1 %27, label %29, label %28

28:                                               ; preds = %25
  call void (ptr, ...) @die(ptr noundef @.str.12) #9
  unreachable

29:                                               ; preds = %25
  %30 = load ptr, ptr %9, align 8, !tbaa !81
  %31 = load i32, ptr %30, align 4
  %32 = lshr i32 %31, 4
  %33 = and i32 %32, 3
  %34 = icmp ne i32 %33, 0
  br i1 %34, label %35, label %36

35:                                               ; preds = %29
  store i32 1, ptr %12, align 4
  br label %113

36:                                               ; preds = %29
  %37 = load ptr, ptr %5, align 8, !tbaa !99
  %38 = getelementptr inbounds nuw %struct.traversal_context, ptr %37, i32 0, i32 0
  %39 = load ptr, ptr %38, align 8, !tbaa !90
  %40 = getelementptr inbounds nuw %struct.rev_info, ptr %39, i32 0, i32 15
  %41 = load i64, ptr %40, align 8
  %42 = lshr i64 %41, 43
  %43 = and i64 %42, 1
  %44 = trunc i64 %43 to i32
  %45 = icmp ne i32 %44, 0
  br i1 %45, label %46, label %63

46:                                               ; preds = %36
  %47 = load ptr, ptr @the_repository, align 8, !tbaa !67
  %48 = load ptr, ptr %9, align 8, !tbaa !81
  %49 = getelementptr inbounds nuw %struct.object, ptr %48, i32 0, i32 1
  %50 = call i32 @repo_has_object_file(ptr noundef %47, ptr noundef %49)
  %51 = icmp ne i32 %50, 0
  br i1 %51, label %63, label %52

52:                                               ; preds = %46
  %53 = load ptr, ptr %5, align 8, !tbaa !99
  %54 = getelementptr inbounds nuw %struct.traversal_context, ptr %53, i32 0, i32 0
  %55 = load ptr, ptr %54, align 8, !tbaa !90
  %56 = getelementptr inbounds nuw %struct.rev_info, ptr %55, i32 0, i32 2
  %57 = load ptr, ptr %56, align 8, !tbaa !73
  %58 = load ptr, ptr %9, align 8, !tbaa !81
  %59 = getelementptr inbounds nuw %struct.object, ptr %58, i32 0, i32 1
  %60 = call i32 @is_promisor_object(ptr noundef %57, ptr noundef %59)
  %61 = icmp ne i32 %60, 0
  br i1 %61, label %62, label %63

62:                                               ; preds = %52
  store i32 1, ptr %12, align 4
  br label %113

63:                                               ; preds = %52, %46, %36
  %64 = load ptr, ptr %7, align 8, !tbaa !104
  %65 = getelementptr inbounds nuw %struct.strbuf, ptr %64, i32 0, i32 1
  %66 = load i64, ptr %65, align 8, !tbaa !116
  store i64 %66, ptr %10, align 8, !tbaa !75
  %67 = load ptr, ptr %7, align 8, !tbaa !104
  %68 = load ptr, ptr %8, align 8, !tbaa !102
  call void @strbuf_addstr(ptr noundef %67, ptr noundef %68)
  %69 = load ptr, ptr %5, align 8, !tbaa !99
  %70 = getelementptr inbounds nuw %struct.traversal_context, ptr %69, i32 0, i32 0
  %71 = load ptr, ptr %70, align 8, !tbaa !90
  %72 = getelementptr inbounds nuw %struct.rev_info, ptr %71, i32 0, i32 2
  %73 = load ptr, ptr %72, align 8, !tbaa !73
  %74 = load ptr, ptr %9, align 8, !tbaa !81
  %75 = load ptr, ptr %7, align 8, !tbaa !104
  %76 = getelementptr inbounds nuw %struct.strbuf, ptr %75, i32 0, i32 2
  %77 = load ptr, ptr %76, align 8, !tbaa !119
  %78 = load ptr, ptr %7, align 8, !tbaa !104
  %79 = getelementptr inbounds nuw %struct.strbuf, ptr %78, i32 0, i32 2
  %80 = load ptr, ptr %79, align 8, !tbaa !119
  %81 = load i64, ptr %10, align 8, !tbaa !75
  %82 = getelementptr inbounds nuw i8, ptr %80, i64 %81
  %83 = load ptr, ptr %5, align 8, !tbaa !99
  %84 = getelementptr inbounds nuw %struct.traversal_context, ptr %83, i32 0, i32 4
  %85 = load ptr, ptr %84, align 8, !tbaa !96
  %86 = call i32 @list_objects_filter__filter_object(ptr noundef %73, i32 noundef 4, ptr noundef %74, ptr noundef %77, ptr noundef %82, ptr noundef %85)
  store i32 %86, ptr %11, align 4, !tbaa !10
  %87 = load i32, ptr %11, align 4, !tbaa !10
  %88 = and i32 %87, 1
  %89 = icmp ne i32 %88, 0
  br i1 %89, label %90, label %100

90:                                               ; preds = %63
  %91 = load ptr, ptr %9, align 8, !tbaa !81
  %92 = load i32, ptr %91, align 4
  %93 = lshr i32 %92, 4
  %94 = or i32 %93, 1
  %95 = load i32, ptr %91, align 4
  %96 = and i32 %94, 268435455
  %97 = shl i32 %96, 4
  %98 = and i32 %95, 15
  %99 = or i32 %98, %97
  store i32 %99, ptr %91, align 4
  br label %100

100:                                              ; preds = %90, %63
  %101 = load i32, ptr %11, align 4, !tbaa !10
  %102 = and i32 %101, 2
  %103 = icmp ne i32 %102, 0
  br i1 %103, label %104, label %110

104:                                              ; preds = %100
  %105 = load ptr, ptr %5, align 8, !tbaa !99
  %106 = load ptr, ptr %9, align 8, !tbaa !81
  %107 = load ptr, ptr %7, align 8, !tbaa !104
  %108 = getelementptr inbounds nuw %struct.strbuf, ptr %107, i32 0, i32 2
  %109 = load ptr, ptr %108, align 8, !tbaa !119
  call void @show_object(ptr noundef %105, ptr noundef %106, ptr noundef %109)
  br label %110

110:                                              ; preds = %104, %100
  %111 = load ptr, ptr %7, align 8, !tbaa !104
  %112 = load i64, ptr %10, align 8, !tbaa !75
  call void @strbuf_setlen(ptr noundef %111, i64 noundef %112)
  store i32 0, ptr %12, align 4
  br label %113

113:                                              ; preds = %110, %62, %35, %24
  call void @llvm.lifetime.end.p0(i64 4, ptr %11) #8
  call void @llvm.lifetime.end.p0(i64 8, ptr %10) #8
  call void @llvm.lifetime.end.p0(i64 8, ptr %9) #8
  %114 = load i32, ptr %12, align 4
  switch i32 %114, label %116 [
    i32 0, label %115
    i32 1, label %115
  ]

115:                                              ; preds = %113, %113
  ret void

116:                                              ; preds = %113
  unreachable
}