; Function Attrs: nounwind uwtable
define internal fastcc void @process_blob(ptr noundef nonnull readonly captures(none) %0, ptr noundef %1, ptr noundef nonnull %2, ptr noundef %3) unnamed_addr #0 {
  %5 = load ptr, ptr %0, align 8, !tbaa !74
  %6 = getelementptr inbounds nuw i8, ptr %5, i64 288
  %7 = load i64, ptr %6, align 8
  %8 = and i64 %7, 32768
  %.not = icmp eq i64 %8, 0
  br i1 %.not, label %strbuf_setlen.exit, label %9

9:                                                ; preds = %4
  %.not24 = icmp eq ptr %1, null
  br i1 %.not24, label %10, label %11

10:                                               ; preds = %9
  tail call void (ptr, ...) @die(ptr noundef nonnull @.str.12) #10
  unreachable

11:                                               ; preds = %9
  %12 = load i32, ptr %1, align 4
  %13 = and i32 %12, 48
  %.not25 = icmp eq i32 %13, 0
  br i1 %.not25, label %14, label %strbuf_setlen.exit

14:                                               ; preds = %11
  %15 = and i64 %7, 8796093022208
  %.not26 = icmp eq i64 %15, 0
  br i1 %.not26, label %25, label %16

16:                                               ; preds = %14
  %17 = load ptr, ptr @the_repository, align 8, !tbaa !12
  %18 = getelementptr inbounds nuw i8, ptr %1, i64 4
  %19 = tail call i32 @repo_has_object_file(ptr noundef %17, ptr noundef nonnull %18) #9
  %.not27 = icmp eq i32 %19, 0
  br i1 %.not27, label %20, label %25

20:                                               ; preds = %16
  %21 = load ptr, ptr %0, align 8, !tbaa !74
  %22 = getelementptr inbounds nuw i8, ptr %21, i64 24
  %23 = load ptr, ptr %22, align 8, !tbaa !17
  %24 = tail call i32 @is_promisor_object(ptr noundef %23, ptr noundef nonnull %18) #9
  %.not28 = icmp eq i32 %24, 0
  br i1 %.not28, label %25, label %strbuf_setlen.exit

25:                                               ; preds = %20, %16, %14
  %26 = getelementptr inbounds nuw i8, ptr %2, i64 8
  %27 = load i64, ptr %26, align 8, !tbaa !94
  %28 = tail call i64 @strlen(ptr noundef nonnull dereferenceable(1) %3) #11
  tail call void @strbuf_add(ptr noundef nonnull %2, ptr noundef nonnull %3, i64 noundef %28) #9
  %29 = load ptr, ptr %0, align 8, !tbaa !74
  %30 = getelementptr inbounds nuw i8, ptr %29, i64 24
  %31 = load ptr, ptr %30, align 8, !tbaa !17
  %32 = getelementptr inbounds nuw i8, ptr %2, i64 16
  %33 = load ptr, ptr %32, align 8, !tbaa !97
  %34 = getelementptr inbounds nuw i8, ptr %33, i64 %27
  %35 = getelementptr inbounds nuw i8, ptr %0, i64 32
  %36 = load ptr, ptr %35, align 8, !tbaa !82
  %37 = tail call i32 @list_objects_filter__filter_object(ptr noundef %31, i32 noundef 4, ptr noundef nonnull %1, ptr noundef %33, ptr noundef %34, ptr noundef %36) #9
  %38 = and i32 %37, 1
  %.not29 = icmp eq i32 %38, 0
  br i1 %.not29, label %42, label %39

39:                                               ; preds = %25
  %40 = load i32, ptr %1, align 4
  %41 = or i32 %40, 16
  store i32 %41, ptr %1, align 4
  br label %42

42:                                               ; preds = %39, %25
  %43 = and i32 %37, 2
  %.not30 = icmp eq i32 %43, 0
  br i1 %.not30, label %show_object.exit, label %44

44:                                               ; preds = %42
  %45 = load ptr, ptr %32, align 8, !tbaa !97
  %46 = getelementptr inbounds nuw i8, ptr %0, i64 8
  %47 = load ptr, ptr %46, align 8, !tbaa !78
  %.not.i = icmp eq ptr %47, null
  br i1 %.not.i, label %show_object.exit, label %48

48:                                               ; preds = %44
  %49 = load ptr, ptr %0, align 8, !tbaa !74
  %50 = getelementptr inbounds nuw i8, ptr %49, i64 288
  %51 = load i64, ptr %50, align 8
  %52 = and i64 %51, 1048576
  %.not8.i = icmp eq i64 %52, 0
  br i1 %.not8.i, label %58, label %53

53:                                               ; preds = %48
  %54 = getelementptr inbounds nuw i8, ptr %49, i64 24
  %55 = load ptr, ptr %54, align 8, !tbaa !17
  %56 = getelementptr inbounds nuw i8, ptr %1, i64 4
  %57 = tail call i32 @has_object_pack(ptr noundef %55, ptr noundef nonnull %56) #9
  %.not9.i = icmp eq i32 %57, 0
  br i1 %.not9.i, label %._crit_edge.i, label %show_object.exit

._crit_edge.i:                                    ; preds = %53
  %.pre.i = load ptr, ptr %46, align 8, !tbaa !78
  br label %58

58:                                               ; preds = %._crit_edge.i, %48
  %59 = phi ptr [ %.pre.i, %._crit_edge.i ], [ %47, %48 ]
  %60 = getelementptr inbounds nuw i8, ptr %0, i64 24
  %61 = load ptr, ptr %60, align 8, !tbaa !80
  tail call void %59(ptr noundef nonnull %1, ptr noundef %45, ptr noundef %61) #9
  br label %show_object.exit

show_object.exit:                                 ; preds = %58, %53, %44, %42
  %62 = load i64, ptr %2, align 8, !tbaa !98
  %spec.select.i = tail call i64 @llvm.usub.sat.i64(i64 %62, i64 1)
  %63 = icmp ugt i64 %27, %spec.select.i
  br i1 %63, label %64, label %65

64:                                               ; preds = %show_object.exit
  tail call void (ptr, i32, ptr, ...) @BUG_fl(ptr noundef nonnull @.str.10, i32 noundef 167, ptr noundef nonnull @.str.11) #10
  unreachable

65:                                               ; preds = %show_object.exit
  store i64 %27, ptr %26, align 8, !tbaa !94
  %66 = load ptr, ptr %32, align 8, !tbaa !97
  %.not9.i31 = icmp eq ptr %66, @strbuf_slopbuf
  br i1 %.not9.i31, label %strbuf_setlen.exit, label %67

67:                                               ; preds = %65
  %68 = getelementptr inbounds nuw i8, ptr %66, i64 %27
  store i8 0, ptr %68, align 1, !tbaa !84
  br label %strbuf_setlen.exit

strbuf_setlen.exit:                               ; preds = %67, %65, %20, %11, %4
  ret void
}